target datalayout = "e-m:e-p270:32:32-p271:32:32-p272:64:64-i64:64-i128:128-f80:128-n8:16:32:64-S128"
target triple = "x86_64-pc-linux-gnu"

@.str = private unnamed_addr constant [26 x i8] c"../openssl/crypto/o_str.c\00", align 1
@ossl_to_hex.hexdig = internal constant [17 x i8] c"0123456789ABCDEF\00", align 16
@__func__.buf2hexstr_sep = private unnamed_addr constant [15 x i8] c"buf2hexstr_sep\00", align 1

; Function Attrs: inlinehint nounwind uwtable
define internal i64 @to_hex(ptr noundef %0, i8 noundef zeroext %1, ptr noundef %2) #7 {
  %4 = alloca ptr, align 8
  %5 = alloca i8, align 1
  %6 = alloca ptr, align 8
  store ptr %0, ptr %4, align 8, !tbaa !3
  store i8 %1, ptr %5, align 1, !tbaa !12
  store ptr %2, ptr %6, align 8, !tbaa !3
  %7 = load ptr, ptr %6, align 8, !tbaa !3
  %8 = load i8, ptr %5, align 1, !tbaa !12
  %9 = zext i8 %8 to i32
  %10 = ashr i32 %9, 4
  %11 = and i32 %10, 15
  %12 = sext i32 %11 to i64
  %13 = getelementptr inbounds i8, ptr %7, i64 %12
  %14 = load i8, ptr %13, align 1, !tbaa !12
  %15 = load ptr, ptr %4, align 8, !tbaa !3
  %16 = getelementptr inbounds nuw i8, ptr %15, i32 1
  store ptr %16, ptr %4, align 8, !tbaa !3
  store i8 %14, ptr %15, align 1, !tbaa !12
  %17 = load ptr, ptr %6, align 8, !tbaa !3
  %18 = load i8, ptr %5, align 1, !tbaa !12
  %19 = zext i8 %18 to i32
  %20 = and i32 %19, 15
  %21 = sext i32 %20 to i64
  %22 = getelementptr inbounds i8, ptr %17, i64 %21
  %23 = load i8, ptr %22, align 1, !tbaa !12
  %24 = load ptr, ptr %4, align 8, !tbaa !3
  store i8 %23, ptr %24, align 1, !tbaa !12
  ret i64 2
}

; Function Attrs: nounwind uwtable
define i64 @ossl_to_hex(ptr noundef %0, i8 noundef zeroext %1) #0 {
  %3 = alloca ptr, align 8
  %4 = alloca i8, align 1
  store ptr %0, ptr %3, align 8, !tbaa !3
  store i8 %1, ptr %4, align 1, !tbaa !12
  %5 = load ptr, ptr %3, align 8, !tbaa !3
  %6 = load i8, ptr %4, align 1, !tbaa !12
  %7 = call i64 @to_hex(ptr noundef %5, i8 noundef zeroext %6, ptr noundef @ossl_to_hex.hexdig)
  ret i64 %7
}

; Function Attrs: nounwind uwtable
define internal i32 @buf2hexstr_sep(ptr noundef %0, i64 noundef %1, ptr noundef %2, ptr noundef %3, i64 noundef %4, i8 noundef signext %5) #0 {
  %7 = alloca i32, align 4
  %8 = alloca ptr, align 8
  %9 = alloca i64, align 8
  %10 = alloca ptr, align 8
  %11 = alloca ptr, align 8
  %12 = alloca i64, align 8
  %13 = alloca i8, align 1
  %14 = alloca ptr, align 8
  %15 = alloca i32, align 4
  %16 = alloca i64, align 8
  %17 = alloca i64, align 8
  %18 = alloca i32, align 4
  store ptr %0, ptr %8, align 8, !tbaa !3
  store i64 %1, ptr %9, align 8, !tbaa !10
  store ptr %2, ptr %10, align 8, !tbaa !20
  store ptr %3, ptr %11, align 8, !tbaa !3
  store i64 %4, ptr %12, align 8, !tbaa !10
  store i8 %5, ptr %13, align 1, !tbaa !12
  call void @llvm.lifetime.start.p0(i64 8, ptr %14) #8
  call void @llvm.lifetime.start.p0(i64 4, ptr %15) #8
  %19 = load i8, ptr %13, align 1, !tbaa !12
  %20 = sext i8 %19 to i32
  %21 = icmp ne i32 %20, 0
  %22 = zext i1 %21 to i32
  store i32 %22, ptr %15, align 4, !tbaa !8
  call void @llvm.lifetime.start.p0(i64 8, ptr %16) #8
  call void @llvm.lifetime.start.p0(i64 8, ptr %17) #8
  %23 = load i32, ptr %15, align 4, !tbaa !8
  %24 = icmp ne i32 %23, 0
  br i1 %24, label %25, label %28

25:                                               ; preds = %6
  %26 = load i64, ptr %12, align 8, !tbaa !10
  %27 = mul i64 %26, 3
  br label %32

28:                                               ; preds = %6
  %29 = load i64, ptr %12, align 8, !tbaa !10
  %30 = mul i64 %29, 2
  %31 = add i64 1, %30
  br label %32

32:                                               ; preds = %28, %25
  %33 = phi i64 [ %27, %25 ], [ %31, %28 ]
  store i64 %33, ptr %17, align 8, !tbaa !10
  %34 = load i64, ptr %17, align 8, !tbaa !10
  %35 = icmp eq i64 %34, 0
  br i1 %35, label %36, label %39

36:                                               ; preds = %32
  %37 = load i64, ptr %17, align 8, !tbaa !10
  %38 = add i64 %37, 1
  store i64 %38, ptr %17, align 8, !tbaa !10
  br label %39

39:                                               ; preds = %36, %32
  %40 = load ptr, ptr %10, align 8, !tbaa !20
  %41 = icmp ne ptr %40, null
  br i1 %41, label %42, label %45

42:                                               ; preds = %39
  %43 = load i64, ptr %17, align 8, !tbaa !10
  %44 = load ptr, ptr %10, align 8, !tbaa !20
  store i64 %43, ptr %44, align 8, !tbaa !10
  br label %45

45:                                               ; preds = %42, %39
  %46 = load ptr, ptr %8, align 8, !tbaa !3
  %47 = icmp eq ptr %46, null
  br i1 %47, label %48, label %49

48:                                               ; preds = %45
  store i32 1, ptr %7, align 4
  store i32 1, ptr %18, align 4
  br label %90

49:                                               ; preds = %45
  %50 = load i64, ptr %9, align 8, !tbaa !10
  %51 = load i64, ptr %17, align 8, !tbaa !10
  %52 = icmp ult i64 %50, %51
  br i1 %52, label %53, label %54

53:                                               ; preds = %49
  call void @ERR_new()
  call void @ERR_set_debug(ptr noundef @.str, i32 noundef 302, ptr noundef @__func__.buf2hexstr_sep)
  call void (i32, i32, ptr, ...) @ERR_set_error(i32 noundef 15, i32 noundef 116, ptr noundef null)
  store i32 0, ptr %7, align 4
  store i32 1, ptr %18, align 4
  br label %90

54:                                               ; preds = %49
  %55 = load ptr, ptr %8, align 8, !tbaa !3
  store ptr %55, ptr %14, align 8, !tbaa !3
  store i64 0, ptr %16, align 8, !tbaa !10
  br label %56

56:                                               ; preds = %76, %54
  %57 = load i64, ptr %16, align 8, !tbaa !10
  %58 = load i64, ptr %12, align 8, !tbaa !10
  %59 = icmp ult i64 %57, %58
  br i1 %59, label %60, label %79

60:                                               ; preds = %56
  %61 = load ptr, ptr %14, align 8, !tbaa !3
  %62 = load ptr, ptr %11, align 8, !tbaa !3
  %63 = load i64, ptr %16, align 8, !tbaa !10
  %64 = getelementptr inbounds nuw i8, ptr %62, i64 %63
  %65 = load i8, ptr %64, align 1, !tbaa !12
  %66 = call i64 @ossl_to_hex(ptr noundef %61, i8 noundef zeroext %65)
  %67 = load ptr, ptr %14, align 8, !tbaa !3
  %68 = getelementptr inbounds nuw i8, ptr %67, i64 %66
  store ptr %68, ptr %14, align 8, !tbaa !3
  %69 = load i32, ptr %15, align 4, !tbaa !8
  %70 = icmp ne i32 %69, 0
  br i1 %70, label %71, label %75

71:                                               ; preds = %60
  %72 = load i8, ptr %13, align 1, !tbaa !12
  %73 = load ptr, ptr %14, align 8, !tbaa !3
  %74 = getelementptr inbounds nuw i8, ptr %73, i32 1
  store ptr %74, ptr %14, align 8, !tbaa !3
  store i8 %72, ptr %73, align 1, !tbaa !12
  br label %75

75:                                               ; preds = %71, %60
  br label %76

76:                                               ; preds = %75
  %77 = load i64, ptr %16, align 8, !tbaa !10
  %78 = add i64 %77, 1
  store i64 %78, ptr %16, align 8, !tbaa !10
  br label %56, !llvm.loop !23

79:                                               ; preds = %56
  %80 = load i32, ptr %15, align 4, !tbaa !8
  %81 = icmp ne i32 %80, 0
  br i1 %81, label %82, label %88

82:                                               ; preds = %79
  %83 = load i64, ptr %12, align 8, !tbaa !10
  %84 = icmp ugt i64 %83, 0
  br i1 %84, label %85, label %88

85:                                               ; preds = %82
  %86 = load ptr, ptr %14, align 8, !tbaa !3
  %87 = getelementptr inbounds i8, ptr %86, i32 -1
  store ptr %87, ptr %14, align 8, !tbaa !3
  br label %88

88:                                               ; preds = %85, %82, %79
  %89 = load ptr, ptr %14, align 8, !tbaa !3
  store i8 0, ptr %89, align 1, !tbaa !12
  store i32 1, ptr %7, align 4
  store i32 1, ptr %18, align 4
  br label %90

90:                                               ; preds = %88, %53, %48
  call void @llvm.lifetime.end.p0(i64 8, ptr %17) #8
  call void @llvm.lifetime.end.p0(i64 8, ptr %16) #8
  call void @llvm.lifetime.end.p0(i64 4, ptr %15) #8
  call void @llvm.lifetime.end.p0(i64 8, ptr %14) #8
  %91 = load i32, ptr %7, align 4
  ret i32 %91
}

; Function Attrs: nounwind uwtable
define ptr @ossl_buf2hexstr_sep(ptr noundef %0, i64 noundef %1, i8 noundef signext %2) #0 {
  %4 = alloca ptr, align 8
  %5 = alloca ptr, align 8
  %6 = alloca i64, align 8
  %7 = alloca i8, align 1
  %8 = alloca ptr, align 8
  %9 = alloca i64, align 8
  %10 = alloca i32, align 4
  store ptr %0, ptr %5, align 8, !tbaa !3
  store i64 %1, ptr %6, align 8, !tbaa !10
  store i8 %2, ptr %7, align 1, !tbaa !12
  call void @llvm.lifetime.start.p0(i64 8, ptr %8) #8
  call void @llvm.lifetime.start.p0(i64 8, ptr %9) #8
  %11 = load i64, ptr %6, align 8, !tbaa !10
  %12 = icmp eq i64 %11, 0
  br i1 %12, label %13, label %15

13:                                               ; preds = %3
  %14 = call noalias ptr @CRYPTO_zalloc(i64 noundef 1, ptr noundef @.str, i32 noundef 335)
  store ptr %14, ptr %4, align 8
  store i32 1, ptr %10, align 4
  br label %44

15:                                               ; preds = %3
  %16 = load i8, ptr %7, align 1, !tbaa !12
  %17 = sext i8 %16 to i32
  %18 = icmp ne i32 %17, 0
  br i1 %18, label %19, label %22

19:                                               ; preds = %15
  %20 = load i64, ptr %6, align 8, !tbaa !10
  %21 = mul nsw i64 %20, 3
  br label %26

22:                                               ; preds = %15
  %23 = load i64, ptr %6, align 8, !tbaa !10
  %24 = mul nsw i64 %23, 2
  %25 = add nsw i64 1, %24
  br label %26

26:                                               ; preds = %22, %19
  %27 = phi i64 [ %21, %19 ], [ %25, %22 ]
  store i64 %27, ptr %9, align 8, !tbaa !10
  %28 = load i64, ptr %9, align 8, !tbaa !10
  %29 = call noalias ptr @CRYPTO_malloc(i64 noundef %28, ptr noundef @.str, i32 noundef 338)
  store ptr %29, ptr %8, align 8, !tbaa !3
  %30 = icmp eq ptr %29, null
  br i1 %30, label %31, label %32

31:                                               ; preds = %26
  store ptr null, ptr %4, align 8
  store i32 1, ptr %10, align 4
  br label %44

32:                                               ; preds = %26
  %33 = load ptr, ptr %8, align 8, !tbaa !3
  %34 = load i64, ptr %9, align 8, !tbaa !10
  %35 = load ptr, ptr %5, align 8, !tbaa !3
  %36 = load i64, ptr %6, align 8, !tbaa !10
  %37 = load i8, ptr %7, align 1, !tbaa !12
  %38 = call i32 @buf2hexstr_sep(ptr noundef %33, i64 noundef %34, ptr noundef null, ptr noundef %35, i64 noundef %36, i8 noundef signext %37)
  %39 = icmp ne i32 %38, 0
  br i1 %39, label %40, label %42

40:                                               ; preds = %32
  %41 = load ptr, ptr %8, align 8, !tbaa !3
  store ptr %41, ptr %4, align 8
  store i32 1, ptr %10, align 4
  br label %44

42:                                               ; preds = %32
  %43 = load ptr, ptr %8, align 8, !tbaa !3
  call void @CRYPTO_free(ptr noundef %43, ptr noundef @.str, i32 noundef 343)
  store ptr null, ptr %4, align 8
  store i32 1, ptr %10, align 4
  br label %44

44:                                               ; preds = %42, %40, %31, %13
  call void @llvm.lifetime.end.p0(i64 8, ptr %9) #8
  call void @llvm.lifetime.end.p0(i64 8, ptr %8) #8
  %45 = load ptr, ptr %4, align 8
  ret ptr %45
}