; Function Attrs: nounwind uwtable
define ptr @ossl_buf2hexstr_sep(ptr noundef readonly captures(none) %0, i64 noundef %1, i8 noundef signext %2) local_unnamed_addr #0 {
  %4 = icmp eq i64 %1, 0
  br i1 %4, label %5, label %7

5:                                                ; preds = %3
  %6 = tail call noalias ptr @CRYPTO_zalloc(i64 noundef 1, ptr noundef nonnull @.str, i32 noundef 335) #16
  br label %48

7:                                                ; preds = %3
  %.not = icmp eq i8 %2, 0
  %8 = mul i64 %1, 3
  %9 = shl i64 %1, 1
  %10 = or disjoint i64 %9, 1
  %11 = select i1 %.not, i64 %10, i64 %8
  %12 = tail call noalias ptr @CRYPTO_malloc(i64 noundef %11, ptr noundef nonnull @.str, i32 noundef 338) #16
  %13 = icmp eq ptr %12, null
  br i1 %13, label %48, label %14

14:                                               ; preds = %7
  %15 = icmp ne i8 %2, 0
  %16 = tail call i64 @llvm.umax.i64(i64 %8, i64 1)
  %.0.i = select i1 %15, i64 %16, i64 %10
  %17 = icmp ult i64 %11, %.0.i
  br i1 %17, label %47, label %.lr.ph.i

.lr.ph.i:                                         ; preds = %14
  br i1 %15, label %.lr.ph.split.us.i, label %.lr.ph.split.i

.lr.ph.split.us.i:                                ; preds = %.lr.ph.i, %.lr.ph.split.us.i
  %.02837.us.i = phi i64 [ %32, %.lr.ph.split.us.i ], [ 0, %.lr.ph.i ]
  %.03036.us.i = phi ptr [ %31, %.lr.ph.split.us.i ], [ %12, %.lr.ph.i ]
  %18 = getelementptr inbounds nuw i8, ptr %0, i64 %.02837.us.i
  %19 = load i8, ptr %18, align 1, !tbaa !3
  %20 = zext i8 %19 to i32
  %21 = lshr i32 %20, 4
  %22 = zext nneg i32 %21 to i64
  %23 = getelementptr inbounds nuw i8, ptr @ossl_to_hex.hexdig, i64 %22
  %24 = load i8, ptr %23, align 1, !tbaa !3
  %25 = getelementptr inbounds nuw i8, ptr %.03036.us.i, i64 1
  store i8 %24, ptr %.03036.us.i, align 1, !tbaa !3
  %26 = and i32 %20, 15
  %27 = zext nneg i32 %26 to i64
  %28 = getelementptr inbounds nuw i8, ptr @ossl_to_hex.hexdig, i64 %27
  %29 = load i8, ptr %28, align 1, !tbaa !3
  store i8 %29, ptr %25, align 1, !tbaa !3
  %30 = getelementptr inbounds nuw i8, ptr %.03036.us.i, i64 2
  %31 = getelementptr inbounds nuw i8, ptr %.03036.us.i, i64 3
  store i8 %2, ptr %30, align 1, !tbaa !3
  %32 = add nuw i64 %.02837.us.i, 1
  %exitcond41.not.i = icmp eq i64 %32, %1
  br i1 %exitcond41.not.i, label %buf2hexstr_sep.exit, label %.lr.ph.split.us.i, !llvm.loop !18

.lr.ph.split.i:                                   ; preds = %.lr.ph.i, %.lr.ph.split.i
  %.02837.i = phi i64 [ %46, %.lr.ph.split.i ], [ 0, %.lr.ph.i ]
  %.03036.i = phi ptr [ %45, %.lr.ph.split.i ], [ %12, %.lr.ph.i ]
  %33 = getelementptr inbounds nuw i8, ptr %0, i64 %.02837.i
  %34 = load i8, ptr %33, align 1, !tbaa !3
  %35 = zext i8 %34 to i32
  %36 = lshr i32 %35, 4
  %37 = zext nneg i32 %36 to i64
  %38 = getelementptr inbounds nuw i8, ptr @ossl_to_hex.hexdig, i64 %37
  %39 = load i8, ptr %38, align 1, !tbaa !3
  %40 = getelementptr inbounds nuw i8, ptr %.03036.i, i64 1
  store i8 %39, ptr %.03036.i, align 1, !tbaa !3
  %41 = and i32 %35, 15
  %42 = zext nneg i32 %41 to i64
  %43 = getelementptr inbounds nuw i8, ptr @ossl_to_hex.hexdig, i64 %42
  %44 = load i8, ptr %43, align 1, !tbaa !3
  store i8 %44, ptr %40, align 1, !tbaa !3
  %45 = getelementptr inbounds nuw i8, ptr %.03036.i, i64 2
  %46 = add nuw i64 %.02837.i, 1
  %exitcond.not.i = icmp eq i64 %46, %1
  br i1 %exitcond.not.i, label %buf2hexstr_sep.exit, label %.lr.ph.split.i, !llvm.loop !18

buf2hexstr_sep.exit:                              ; preds = %.lr.ph.split.i, %.lr.ph.split.us.i
  %.030.lcssa.i = phi ptr [ %31, %.lr.ph.split.us.i ], [ %45, %.lr.ph.split.i ]
  %spec.select.idx.i = sext i1 %15 to i64
  %spec.select.i = getelementptr inbounds i8, ptr %.030.lcssa.i, i64 %spec.select.idx.i
  store i8 0, ptr %spec.select.i, align 1, !tbaa !3
  br label %48

47:                                               ; preds = %14
  tail call void @ERR_new() #16
  tail call void @ERR_set_debug(ptr noundef nonnull @.str, i32 noundef 302, ptr noundef nonnull @__func__.buf2hexstr_sep) #16
  tail call void (i32, i32, ptr, ...) @ERR_set_error(i32 noundef 15, i32 noundef 116, ptr noundef null) #16
  tail call void @CRYPTO_free(ptr noundef nonnull %12, ptr noundef nonnull @.str, i32 noundef 343) #16
  br label %48

48:                                               ; preds = %buf2hexstr_sep.exit, %7, %47, %5
  %.0 = phi ptr [ %6, %5 ], [ null, %47 ], [ null, %7 ], [ %12, %buf2hexstr_sep.exit ]
  ret ptr %.0
}